target datalayout = "e-m:e-p270:32:32-p271:32:32-p272:64:64-i64:64-i128:128-f80:128-n8:16:32:64-S128"
target triple = "x86_64-unknown-linux-gnu"

; Function Attrs: nounwind uwtable
define dso_local i32 @hex_digit_to_int(i8 noundef signext %c) #0 {
entry:
  %retval = alloca i32, align 4
  %c.addr = alloca i8, align 1
  store i8 %c, ptr %c.addr, align 1
  %0 = load i8, ptr %c.addr, align 1
  %conv = sext i8 %0 to i32
  switch i32 %conv, label %sw.default [
    i32 48, label %sw.bb
    i32 49, label %sw.bb1
    i32 50, label %sw.bb2
    i32 51, label %sw.bb3
    i32 52, label %sw.bb4
    i32 53, label %sw.bb5
    i32 54, label %sw.bb6
    i32 55, label %sw.bb7
    i32 56, label %sw.bb8
    i32 57, label %sw.bb9
    i32 97, label %sw.bb10
    i32 65, label %sw.bb10
    i32 98, label %sw.bb11
    i32 66, label %sw.bb11
    i32 99, label %sw.bb12
    i32 67, label %sw.bb12
    i32 100, label %sw.bb13
    i32 68, label %sw.bb13
    i32 101, label %sw.bb14
    i32 69, label %sw.bb14
    i32 102, label %sw.bb15
    i32 70, label %sw.bb15
  ]

sw.bb:                                            ; preds = %entry
  store i32 0, ptr %retval, align 4
  br label %return

sw.bb1:                                           ; preds = %entry
  store i32 1, ptr %retval, align 4
  br label %return

sw.bb2:                                           ; preds = %entry
  store i32 2, ptr %retval, align 4
  br label %return

sw.bb3:                                           ; preds = %entry
  store i32 3, ptr %retval, align 4
  br label %return

sw.bb4:                                           ; preds = %entry
  store i32 4, ptr %retval, align 4
  br label %return

sw.bb5:                                           ; preds = %entry
  store i32 5, ptr %retval, align 4
  br label %return

sw.bb6:                                           ; preds = %entry
  store i32 6, ptr %retval, align 4
  br label %return

sw.bb7:                                           ; preds = %entry
  store i32 7, ptr %retval, align 4
  br label %return

sw.bb8:                                           ; preds = %entry
  store i32 8, ptr %retval, align 4
  br label %return

sw.bb9:                                           ; preds = %entry
  store i32 9, ptr %retval, align 4
  br label %return

sw.bb10:                                          ; preds = %entry, %entry
  store i32 10, ptr %retval, align 4
  br label %return

sw.bb11:                                          ; preds = %entry, %entry
  store i32 11, ptr %retval, align 4
  br label %return

sw.bb12:                                          ; preds = %entry, %entry
  store i32 12, ptr %retval, align 4
  br label %return

sw.bb13:                                          ; preds = %entry, %entry
  store i32 13, ptr %retval, align 4
  br label %return

sw.bb14:                                          ; preds = %entry, %entry
  store i32 14, ptr %retval, align 4
  br label %return

sw.bb15:                                          ; preds = %entry, %entry
  store i32 15, ptr %retval, align 4
  br label %return

sw.default:                                       ; preds = %entry
  store i32 0, ptr %retval, align 4
  br label %return

return:                                           ; preds = %sw.default, %sw.bb15, %sw.bb14, %sw.bb13, %sw.bb12, %sw.bb11, %sw.bb10, %sw.bb9, %sw.bb8, %sw.bb7, %sw.bb6, %sw.bb5, %sw.bb4, %sw.bb3, %sw.bb2, %sw.bb1, %sw.bb
  %1 = load i32, ptr %retval, align 4
  ret i32 %1
}