; Function Attrs: mustprogress nofree norecurse nosync nounwind willreturn memory(none) uwtable
define dso_local noundef i32 @hex_digit_to_int(i8 noundef signext %c) local_unnamed_addr #20 {
entry:
  switch i8 %c, label %return [
    i8 70, label %sw.bb15
    i8 49, label %sw.bb1
    i8 50, label %sw.bb2
    i8 51, label %sw.bb3
    i8 52, label %sw.bb4
    i8 53, label %sw.bb5
    i8 54, label %sw.bb6
    i8 55, label %sw.bb7
    i8 56, label %sw.bb8
    i8 57, label %sw.bb9
    i8 97, label %sw.bb10
    i8 65, label %sw.bb10
    i8 98, label %sw.bb11
    i8 66, label %sw.bb11
    i8 99, label %sw.bb12
    i8 67, label %sw.bb12
    i8 100, label %sw.bb13
    i8 68, label %sw.bb13
    i8 101, label %sw.bb14
    i8 69, label %sw.bb14
    i8 102, label %sw.bb15
  ]

sw.bb1:                                           ; preds = %entry
  br label %return

sw.bb2:                                           ; preds = %entry
  br label %return

sw.bb3:                                           ; preds = %entry
  br label %return

sw.bb4:                                           ; preds = %entry
  br label %return

sw.bb5:                                           ; preds = %entry
  br label %return

sw.bb6:                                           ; preds = %entry
  br label %return

sw.bb7:                                           ; preds = %entry
  br label %return

sw.bb8:                                           ; preds = %entry
  br label %return

sw.bb9:                                           ; preds = %entry
  br label %return

sw.bb10:                                          ; preds = %entry, %entry
  br label %return

sw.bb11:                                          ; preds = %entry, %entry
  br label %return

sw.bb12:                                          ; preds = %entry, %entry
  br label %return

sw.bb13:                                          ; preds = %entry, %entry
  br label %return

sw.bb14:                                          ; preds = %entry, %entry
  br label %return

sw.bb15:                                          ; preds = %entry, %entry
  br label %return

return:                                           ; preds = %entry, %sw.bb15, %sw.bb14, %sw.bb13, %sw.bb12, %sw.bb11, %sw.bb10, %sw.bb9, %sw.bb8, %sw.bb7, %sw.bb6, %sw.bb5, %sw.bb4, %sw.bb3, %sw.bb2, %sw.bb1
  %retval.0 = phi i32 [ 15, %sw.bb15 ], [ 14, %sw.bb14 ], [ 13, %sw.bb13 ], [ 12, %sw.bb12 ], [ 11, %sw.bb11 ], [ 10, %sw.bb10 ], [ 9, %sw.bb9 ], [ 8, %sw.bb8 ], [ 7, %sw.bb7 ], [ 6, %sw.bb6 ], [ 5, %sw.bb5 ], [ 4, %sw.bb4 ], [ 3, %sw.bb3 ], [ 2, %sw.bb2 ], [ 1, %sw.bb1 ], [ 0, %entry ]
  ret i32 %retval.0
}